target datalayout = "e-m:e-p270:32:32-p271:32:32-p272:64:64-i64:64-i128:128-f80:128-n8:16:32:64-S128"
target triple = "x86_64-pc-linux-gnu"

%"class.llvm::sampleprof::SampleProfileReader" = type <{ ptr, %"class.llvm::sampleprof::SampleProfileMap", ptr, %"class.std::unique_ptr", %"class.std::unique_ptr.18", %"class.std::unique_ptr.26", %"class.std::unordered_map.34", %"struct.std::pair", i8, i8, i8, i8, i32, i8, [3 x i8], i32, ptr, i32, i8, i8, [2 x i8] }>
%"class.llvm::sampleprof::SampleProfileMap" = type { %"class.llvm::sampleprof::HashKeyMap" }
%"class.llvm::sampleprof::HashKeyMap" = type { %"class.std::unordered_map" }
%"class.std::unordered_map" = type { %"class.std::_Hashtable" }
%"class.std::_Hashtable" = type { ptr, i64, %"struct.std::__detail::_Hash_node_base", i64, %"struct.std::__detail::_Prime_rehash_policy", ptr }
%"struct.std::__detail::_Hash_node_base" = type { ptr }
%"struct.std::__detail::_Prime_rehash_policy" = type { float, i64 }
%"class.std::unique_ptr" = type { %"struct.std::__uniq_ptr_data" }
%"struct.std::__uniq_ptr_data" = type { %"class.std::__uniq_ptr_impl" }
%"class.std::__uniq_ptr_impl" = type { %"class.std::tuple" }
%"class.std::tuple" = type { %"struct.std::_Tuple_impl" }
%"struct.std::_Tuple_impl" = type { %"struct.std::_Head_base.17" }
%"struct.std::_Head_base.17" = type { ptr }
%"class.std::unique_ptr.18" = type { %"struct.std::__uniq_ptr_data.19" }
%"struct.std::__uniq_ptr_data.19" = type { %"class.std::__uniq_ptr_impl.20" }
%"class.std::__uniq_ptr_impl.20" = type { %"class.std::tuple.21" }
%"class.std::tuple.21" = type { %"struct.std::_Tuple_impl.22" }
%"struct.std::_Tuple_impl.22" = type { %"struct.std::_Head_base.25" }
%"struct.std::_Head_base.25" = type { ptr }
%"class.std::unique_ptr.26" = type { %"struct.std::__uniq_ptr_data.27" }
%"struct.std::__uniq_ptr_data.27" = type { %"class.std::__uniq_ptr_impl.28" }
%"class.std::__uniq_ptr_impl.28" = type { %"class.std::tuple.29" }
%"class.std::tuple.29" = type { %"struct.std::_Tuple_impl.30" }
%"struct.std::_Tuple_impl.30" = type { %"struct.std::_Head_base.33" }
%"struct.std::_Head_base.33" = type { ptr }
%"class.std::unordered_map.34" = type { %"class.std::_Hashtable.35" }
%"class.std::_Hashtable.35" = type { ptr, i64, %"struct.std::__detail::_Hash_node_base", i64, %"struct.std::__detail::_Prime_rehash_policy", ptr }
%"struct.std::pair" = type { ptr, ptr }
%"class.std::error_code" = type { i32, ptr }
%"class.llvm::sampleprof::SampleProfileReader.base" = type <{ ptr, %"class.llvm::sampleprof::SampleProfileMap", ptr, %"class.std::unique_ptr", %"class.std::unique_ptr.18", %"class.std::unique_ptr.26", %"class.std::unordered_map.34", %"struct.std::pair", i8, i8, i8, i8, i32, i8, [3 x i8], i32, ptr, i32, i8, i8 }>
%"class.llvm::sampleprof::SampleProfileReaderBinary" = type { %"class.llvm::sampleprof::SampleProfileReader.base", ptr, ptr, %"class.std::vector.84", %"class.std::vector.89", %"class.std::vector.94", ptr }
%"class.std::vector.84" = type { %"struct.std::_Vector_base.85" }
%"struct.std::_Vector_base.85" = type { %"struct.std::_Vector_base<llvm::sampleprof::FunctionId, std::allocator<llvm::sampleprof::FunctionId>>::_Vector_impl" }
%"struct.std::_Vector_base<llvm::sampleprof::FunctionId, std::allocator<llvm::sampleprof::FunctionId>>::_Vector_impl" = type { %"struct.std::_Vector_base<llvm::sampleprof::FunctionId, std::allocator<llvm::sampleprof::FunctionId>>::_Vector_impl_data" }
%"struct.std::_Vector_base<llvm::sampleprof::FunctionId, std::allocator<llvm::sampleprof::FunctionId>>::_Vector_impl_data" = type { ptr, ptr, ptr }
%"class.std::vector.89" = type { %"struct.std::_Vector_base.90" }
%"struct.std::_Vector_base.90" = type { %"struct.std::_Vector_base<llvm::SmallVector<llvm::sampleprof::SampleContextFrame, 1>, std::allocator<llvm::SmallVector<llvm::sampleprof::SampleContextFrame, 1>>>::_Vector_impl" }
%"struct.std::_Vector_base<llvm::SmallVector<llvm::sampleprof::SampleContextFrame, 1>, std::allocator<llvm::SmallVector<llvm::sampleprof::SampleContextFrame, 1>>>::_Vector_impl" = type { %"struct.std::_Vector_base<llvm::SmallVector<llvm::sampleprof::SampleContextFrame, 1>, std::allocator<llvm::SmallVector<llvm::sampleprof::SampleContextFrame, 1>>>::_Vector_impl_data" }
%"struct.std::_Vector_base<llvm::SmallVector<llvm::sampleprof::SampleContextFrame, 1>, std::allocator<llvm::SmallVector<llvm::sampleprof::SampleContextFrame, 1>>>::_Vector_impl_data" = type { ptr, ptr, ptr }
%"class.std::vector.94" = type { %"struct.std::_Vector_base.95" }
%"struct.std::_Vector_base.95" = type { %"struct.std::_Vector_base<unsigned long, std::allocator<unsigned long>>::_Vector_impl" }
%"struct.std::_Vector_base<unsigned long, std::allocator<unsigned long>>::_Vector_impl" = type { %"struct.std::_Vector_base<unsigned long, std::allocator<unsigned long>>::_Vector_impl_data" }
%"struct.std::_Vector_base<unsigned long, std::allocator<unsigned long>>::_Vector_impl_data" = type { ptr, ptr, ptr }

; Function Attrs: mustprogress nounwind uwtable
define linkonce_odr hidden void @_ZNSt10error_codeC2EiRKNSt3_V214error_categoryE(ptr noundef nonnull align 8 dereferenceable(16) %0, i32 noundef %1, ptr noundef nonnull align 8 dereferenceable(8) %2) unnamed_addr #1 comdat align 2 {
  %4 = alloca ptr, align 8
  %5 = alloca i32, align 4
  %6 = alloca ptr, align 8
  store ptr %0, ptr %4, align 8
  store i32 %1, ptr %5, align 4
  store ptr %2, ptr %6, align 8
  %7 = load ptr, ptr %4, align 8
  %8 = getelementptr inbounds nuw %"class.std::error_code", ptr %7, i32 0, i32 0
  %9 = load i32, ptr %5, align 4
  store i32 %9, ptr %8, align 8
  %10 = getelementptr inbounds nuw %"class.std::error_code", ptr %7, i32 0, i32 1
  %11 = load ptr, ptr %6, align 8
  store ptr %11, ptr %10, align 8
  ret void
}

; Function Attrs: mustprogress nounwind uwtable
define linkonce_odr hidden { i32, ptr } @_ZN4llvm15make_error_codeENS_16sampleprof_errorE(i32 noundef %0) #1 comdat {
  %2 = alloca %"class.std::error_code", align 8
  %3 = alloca i32, align 4
  store i32 %0, ptr %3, align 4
  %4 = load i32, ptr %3, align 4
  %5 = call noundef nonnull align 8 dereferenceable(8) ptr @_ZN4llvm19sampleprof_categoryEv()
  call void @_ZNSt10error_codeC2EiRKNSt3_V214error_categoryE(ptr noundef nonnull align 8 dereferenceable(16) %2, i32 noundef %4, ptr noundef nonnull align 8 dereferenceable(8) %5) #2
  %6 = load { i32, ptr }, ptr %2, align 8
  ret { i32, ptr } %6
}

; Function Attrs: mustprogress nounwind uwtable
define linkonce_odr hidden void @_ZNSt10error_codeC2IN4llvm16sampleprof_errorEvEET_(ptr noundef nonnull align 8 dereferenceable(16) %0, i32 noundef %1) unnamed_addr #1 comdat align 2 {
  %3 = alloca ptr, align 8
  %4 = alloca i32, align 4
  %5 = alloca %"class.std::error_code", align 8
  store ptr %0, ptr %3, align 8
  store i32 %1, ptr %4, align 4
  %6 = load ptr, ptr %3, align 8
  %7 = load i32, ptr %4, align 4
  %8 = call { i32, ptr } @_ZN4llvm15make_error_codeENS_16sampleprof_errorE(i32 noundef %7)
  %9 = getelementptr inbounds nuw { i32, ptr }, ptr %5, i32 0, i32 0
  %10 = extractvalue { i32, ptr } %8, 0
  store i32 %10, ptr %9, align 8
  %11 = getelementptr inbounds nuw { i32, ptr }, ptr %5, i32 0, i32 1
  %12 = extractvalue { i32, ptr } %8, 1
  store ptr %12, ptr %11, align 8
  call void @llvm.memcpy.p0.p0.i64(ptr align 8 %6, ptr align 8 %5, i64 16, i1 false)
  ret void
}

; Function Attrs: mustprogress nounwind uwtable
define linkonce_odr hidden noundef zeroext i1 @_ZNKSt10error_codecvbEv(ptr noundef nonnull align 8 dereferenceable(16) %0) #1 comdat align 2 {
  %2 = alloca ptr, align 8
  store ptr %0, ptr %2, align 8
  %3 = load ptr, ptr %2, align 8
  %4 = getelementptr inbounds nuw %"class.std::error_code", ptr %3, i32 0, i32 0
  %5 = load i32, ptr %4, align 8
  %6 = icmp ne i32 %5, 0
  ret i1 %6
}

; Function Attrs: mustprogress nounwind uwtable
define dso_local { i32, ptr } @_ZN4llvm10sampleprof32SampleProfileReaderExtBinaryBase4readERKNS_8DenseSetINS_9StringRefENS_12DenseMapInfoIS3_vEEEERNS0_16SampleProfileMapE(ptr noundef nonnull align 8 dereferenceable(496) %0, ptr noundef nonnull align 8 dereferenceable(24) %1, ptr noundef nonnull align 8 dereferenceable(56) %2) unnamed_addr #1 align 2 {
  %4 = alloca %"class.std::error_code", align 8
  %5 = alloca ptr, align 8
  %6 = alloca ptr, align 8
  %7 = alloca ptr, align 8
  store ptr %0, ptr %5, align 8
  store ptr %1, ptr %6, align 8
  store ptr %2, ptr %7, align 8
  %8 = load ptr, ptr %5, align 8
  %9 = getelementptr inbounds nuw %"class.llvm::sampleprof::SampleProfileReader", ptr %8, i32 0, i32 7
  %10 = getelementptr inbounds nuw %"struct.std::pair", ptr %9, i32 0, i32 0
  %11 = load ptr, ptr %10, align 8
  %12 = getelementptr inbounds nuw %"class.llvm::sampleprof::SampleProfileReaderBinary", ptr %8, i32 0, i32 1
  store ptr %11, ptr %12, align 8
  %13 = getelementptr inbounds nuw %"class.llvm::sampleprof::SampleProfileReader", ptr %8, i32 0, i32 7
  %14 = getelementptr inbounds nuw %"struct.std::pair", ptr %13, i32 0, i32 1
  %15 = load ptr, ptr %14, align 8
  %16 = getelementptr inbounds nuw %"class.llvm::sampleprof::SampleProfileReaderBinary", ptr %8, i32 0, i32 2
  store ptr %15, ptr %16, align 8
  %17 = load ptr, ptr %6, align 8
  %18 = load ptr, ptr %7, align 8
  %19 = call { i32, ptr } @_ZN4llvm10sampleprof32SampleProfileReaderExtBinaryBase16readFuncProfilesERKNS_8DenseSetINS_9StringRefENS_12DenseMapInfoIS3_vEEEERNS0_16SampleProfileMapE(ptr noundef nonnull align 8 dereferenceable(496) %8, ptr noundef nonnull align 8 dereferenceable(24) %17, ptr noundef nonnull align 8 dereferenceable(56) %18)
  %20 = getelementptr inbounds nuw { i32, ptr }, ptr %4, i32 0, i32 0
  %21 = extractvalue { i32, ptr } %19, 0
  store i32 %21, ptr %20, align 8
  %22 = getelementptr inbounds nuw { i32, ptr }, ptr %4, i32 0, i32 1
  %23 = extractvalue { i32, ptr } %19, 1
  store ptr %23, ptr %22, align 8
  %24 = call noundef zeroext i1 @_ZNKSt10error_codecvbEv(ptr noundef nonnull align 8 dereferenceable(16) %4) #2
  br i1 %24, label %25, label %26

25:                                               ; preds = %3
  br label %42

26:                                               ; preds = %3
  %27 = getelementptr inbounds nuw %"class.llvm::sampleprof::SampleProfileReaderBinary", ptr %8, i32 0, i32 1
  %28 = load ptr, ptr %27, align 8
  %29 = getelementptr inbounds nuw %"class.llvm::sampleprof::SampleProfileReaderBinary", ptr %8, i32 0, i32 2
  store ptr %28, ptr %29, align 8
  %30 = getelementptr inbounds nuw %"class.llvm::sampleprof::SampleProfileReader", ptr %8, i32 0, i32 8
  %31 = load i8, ptr %30, align 8
  %32 = trunc i8 %31 to i1
  %33 = load ptr, ptr %7, align 8
  %34 = call { i32, ptr } @_ZN4llvm10sampleprof32SampleProfileReaderExtBinaryBase16readFuncMetadataEbRNS0_16SampleProfileMapE(ptr noundef nonnull align 8 dereferenceable(496) %8, i1 noundef zeroext %32, ptr noundef nonnull align 8 dereferenceable(56) %33)
  %35 = getelementptr inbounds nuw { i32, ptr }, ptr %4, i32 0, i32 0
  %36 = extractvalue { i32, ptr } %34, 0
  store i32 %36, ptr %35, align 8
  %37 = getelementptr inbounds nuw { i32, ptr }, ptr %4, i32 0, i32 1
  %38 = extractvalue { i32, ptr } %34, 1
  store ptr %38, ptr %37, align 8
  %39 = call noundef zeroext i1 @_ZNKSt10error_codecvbEv(ptr noundef nonnull align 8 dereferenceable(16) %4) #2
  br i1 %39, label %40, label %41

40:                                               ; preds = %26
  br label %42

41:                                               ; preds = %26
  call void @_ZNSt10error_codeC2IN4llvm16sampleprof_errorEvEET_(ptr noundef nonnull align 8 dereferenceable(16) %4, i32 noundef 0) #2
  br label %42

42:                                               ; preds = %41, %40, %25
  %43 = load { i32, ptr }, ptr %4, align 8
  ret { i32, ptr } %43
}