; Function Attrs: mustprogress nounwind uwtable
define dso_local { i32, ptr } @_ZN4llvm10sampleprof32SampleProfileReaderExtBinaryBase4readERKNS_8DenseSetINS_9StringRefENS_12DenseMapInfoIS3_vEEEERNS0_16SampleProfileMapE(ptr noundef nonnull align 8 dereferenceable(496) %0, ptr noundef nonnull align 8 dereferenceable(24) %1, ptr noundef nonnull align 8 dereferenceable(56) %2) unnamed_addr #0 align 2 {
  %4 = getelementptr inbounds nuw i8, ptr %0, i64 152
  %5 = load ptr, ptr %4, align 8
  %6 = getelementptr inbounds nuw i8, ptr %0, i64 200
  store ptr %5, ptr %6, align 8
  %7 = getelementptr inbounds i8, ptr %0, i64 160
  %8 = load ptr, ptr %7, align 8
  %9 = getelementptr inbounds nuw i8, ptr %0, i64 208
  store ptr %8, ptr %9, align 8
  %10 = tail call { i32, ptr } @_ZN4llvm10sampleprof32SampleProfileReaderExtBinaryBase16readFuncProfilesERKNS_8DenseSetINS_9StringRefENS_12DenseMapInfoIS3_vEEEERNS0_16SampleProfileMapE(ptr noundef nonnull align 8 dereferenceable(496) %0, ptr noundef nonnull align 8 dereferenceable(24) %1, ptr noundef nonnull align 8 dereferenceable(56) %2)
  %11 = extractvalue { i32, ptr } %10, 0
  %12 = extractvalue { i32, ptr } %10, 1
  %.not = icmp eq i32 %11, 0
  br i1 %.not, label %13, label %23

13:                                               ; preds = %3
  %14 = load ptr, ptr %6, align 8
  store ptr %14, ptr %9, align 8
  %15 = getelementptr inbounds nuw i8, ptr %0, i64 168
  %16 = load i8, ptr %15, align 8
  %17 = trunc i8 %16 to i1
  %18 = tail call { i32, ptr } @_ZN4llvm10sampleprof32SampleProfileReaderExtBinaryBase16readFuncMetadataEbRNS0_16SampleProfileMapE(ptr noundef nonnull align 8 dereferenceable(496) %0, i1 noundef zeroext %17, ptr noundef nonnull align 8 dereferenceable(56) %2)
  %19 = extractvalue { i32, ptr } %18, 0
  %20 = extractvalue { i32, ptr } %18, 1
  %.not6 = icmp eq i32 %19, 0
  br i1 %.not6, label %21, label %23

21:                                               ; preds = %13
  %22 = tail call noundef nonnull align 8 dereferenceable(8) ptr @_ZN4llvm19sampleprof_categoryEv() #24
  br label %23

23:                                               ; preds = %13, %3, %21
  %.sroa.6.0 = phi ptr [ %12, %3 ], [ %20, %13 ], [ %22, %21 ]
  %.sroa.0.0 = phi i32 [ %11, %3 ], [ %19, %13 ], [ 0, %21 ]
  %.fca.0.insert = insertvalue { i32, ptr } poison, i32 %.sroa.0.0, 0
  %.fca.1.insert = insertvalue { i32, ptr } %.fca.0.insert, ptr %.sroa.6.0, 1
  ret { i32, ptr } %.fca.1.insert
}